; Function Attrs: mustprogress uwtable
define noundef ptr @_ZN32pxrInternal_v0_24__pxrReserved__17UsdSchemaRegistry14FindSchemaInfoERKNS_7TfTokenEj(ptr nocapture noundef nonnull readonly align 8 dereferenceable(8) %0, i32 noundef %1) local_unnamed_addr #0 align 2 personality ptr @__gxx_personality_v0 {
  %3 = alloca %"class.pxrInternal_v0_24__pxrReserved__::TfToken", align 8
  %4 = tail call noundef zeroext i1 @_ZN32pxrInternal_v0_24__pxrReserved__17UsdSchemaRegistry21IsAllowedSchemaFamilyERKNS_7TfTokenE(ptr noundef nonnull align 8 dereferenceable(8) %0)
  br i1 %4, label %5, label %_ZN32pxrInternal_v0_24__pxrReserved__7TfTokenD2Ev.exit

5:                                                ; preds = %2
  call void @_ZN32pxrInternal_v0_24__pxrReserved__17UsdSchemaRegistry39MakeSchemaIdentifierForFamilyAndVersionERKNS_7TfTokenEj(ptr dead_on_unwind nonnull writable sret(%"class.pxrInternal_v0_24__pxrReserved__::TfToken") align 8 %3, ptr noundef nonnull align 8 dereferenceable(8) %0, i32 noundef %1)
  %6 = invoke noundef ptr @_ZN32pxrInternal_v0_24__pxrReserved__17UsdSchemaRegistry14FindSchemaInfoERKNS_7TfTokenE(ptr noundef nonnull align 8 dereferenceable(8) %3)
          to label %7 unwind label %15

7:                                                ; preds = %5
  %8 = load ptr, ptr %3, align 8
  %9 = ptrtoint ptr %8 to i64
  %10 = and i64 %9, 7
  %.not.i.i = icmp eq i64 %10, 0
  br i1 %.not.i.i, label %_ZN32pxrInternal_v0_24__pxrReserved__7TfTokenD2Ev.exit, label %11

11:                                               ; preds = %7
  %12 = and i64 %9, -8
  %13 = inttoptr i64 %12 to ptr
  %14 = atomicrmw sub ptr %13, i32 2 release, align 4
  br label %_ZN32pxrInternal_v0_24__pxrReserved__7TfTokenD2Ev.exit

15:                                               ; preds = %5
  %16 = landingpad { ptr, i32 }
          cleanup
  %17 = load ptr, ptr %3, align 8
  %18 = ptrtoint ptr %17 to i64
  %19 = and i64 %18, 7
  %.not.i.i5 = icmp eq i64 %19, 0
  br i1 %.not.i.i5, label %_ZN32pxrInternal_v0_24__pxrReserved__7TfTokenD2Ev.exit6, label %20

20:                                               ; preds = %15
  %21 = and i64 %18, -8
  %22 = inttoptr i64 %21 to ptr
  %23 = atomicrmw sub ptr %22, i32 2 release, align 4
  br label %_ZN32pxrInternal_v0_24__pxrReserved__7TfTokenD2Ev.exit6

_ZN32pxrInternal_v0_24__pxrReserved__7TfTokenD2Ev.exit6: ; preds = %15, %20
  resume { ptr, i32 } %16

_ZN32pxrInternal_v0_24__pxrReserved__7TfTokenD2Ev.exit: ; preds = %11, %7, %2
  %.0 = phi ptr [ null, %2 ], [ %6, %7 ], [ %6, %11 ]
  ret ptr %.0
}